#include <math.h>
#include <stdio.h>
#include <stdlib.h>
#include <string.h>
#include <iostream>
using namespace std;

//
//  main.cpp
//  final
//
//  Created by blues cookie on 13-1-11.
//  Copyright (c) 2013? blues cookie. All rights reserved.
//

int a[100]={1};
int len=1;
void cal(int num)
{
	if(num==0)return;int carrybit=0;
	int i;
	for(i=0;i<len;i++)
	{
		a[i]=a[i]*2+carrybit;
		carrybit=a[i]/10;
		a[i]=a[i]%10;
	}
	if(carrybit==1)
	{
		len++;
		a[i]=1;
	}
	cal(num-1);
}
int main()
{
	int num;
	cin>>num;
	cal(num);
	for(int j=len-1;j>=0;j--)
	{
		cout<<a[j];
    }
}
